; ModuleID = '40/1087.c'
source_filename = "40/1087.c"
target datalayout = "e-m:e-p270:32:32-p271:32:32-p272:64:64-i64:64-f80:128-n8:16:32:64-S128"
target triple = "x86_64-pc-linux-gnu"

@.str = private unnamed_addr constant [9 x i8] c"%f%f%f%f\00", align 1
@.str.1 = private unnamed_addr constant [3 x i8] c"%f\00", align 1
@.str.2 = private unnamed_addr constant [5 x i8] c"%.4f\00", align 1
@.str.3 = private unnamed_addr constant [14 x i8] c"Invalid input\00", align 1

; Function Attrs: noinline nounwind uwtable
define dso_local void @main() #0 {
  %1 = alloca float, align 4
  %2 = alloca float, align 4
  %3 = alloca float, align 4
  %4 = alloca float, align 4
  %5 = alloca float, align 4
  %6 = alloca float, align 4
  %7 = alloca double, align 8
  %8 = alloca double, align 8
  %9 = alloca double, align 8
  %10 = alloca double, align 8
  store double 0x400921FB4D12D84A, double* %9, align 8
  %11 = call i32 (i8*, ...) @__isoc99_scanf(i8* getelementptr inbounds ([9 x i8], [9 x i8]* @.str, i64 0, i64 0), float* %1, float* %2, float* %3, float* %4)
  %12 = load float, float* %1, align 4
  %13 = load float, float* %2, align 4
  %14 = fadd float %12, %13
  %15 = load float, float* %3, align 4
  %16 = fadd float %14, %15
  %17 = load float, float* %4, align 4
  %18 = fadd float %16, %17
  %19 = fdiv float %18, 2.000000e+00
  store float %19, float* %5, align 4
  %20 = call i32 (i8*, ...) @__isoc99_scanf(i8* getelementptr inbounds ([3 x i8], [3 x i8]* @.str.1, i64 0, i64 0), float* %6)
  %21 = load float, float* %6, align 4
  %22 = fdiv float %21, 2.000000e+00
  %23 = fdiv float %22, 1.800000e+02
  %24 = fpext float %23 to double
  %25 = load double, double* %9, align 8
  %26 = fmul double %24, %25
  store double %26, double* %10, align 8
  %27 = load float, float* %5, align 4
  %28 = load float, float* %1, align 4
  %29 = fsub float %27, %28
  %30 = load float, float* %5, align 4
  %31 = load float, float* %2, align 4
  %32 = fsub float %30, %31
  %33 = fmul float %29, %32
  %34 = load float, float* %5, align 4
  %35 = load float, float* %3, align 4
  %36 = fsub float %34, %35
  %37 = fmul float %33, %36
  %38 = load float, float* %5, align 4
  %39 = load float, float* %4, align 4
  %40 = fsub float %38, %39
  %41 = fmul float %37, %40
  %42 = fpext float %41 to double
  %43 = load float, float* %1, align 4
  %44 = load float, float* %2, align 4
  %45 = fmul float %43, %44
  %46 = load float, float* %3, align 4
  %47 = fmul float %45, %46
  %48 = load float, float* %4, align 4
  %49 = fmul float %47, %48
  %50 = fpext float %49 to double
  %51 = load double, double* %10, align 8
  %52 = call double @cos(double %51) #3
  %53 = fmul double %50, %52
  %54 = load double, double* %10, align 8
  %55 = call double @cos(double %54) #3
  %56 = fmul double %53, %55
  %57 = fsub double %42, %56
  store double %57, double* %8, align 8
  %58 = load double, double* %8, align 8
  %59 = fcmp oge double %58, 0.000000e+00
  br i1 %59, label %60, label %65

60:                                               ; preds = %0
  %61 = load double, double* %8, align 8
  %62 = call double @sqrt(double %61) #3
  store double %62, double* %7, align 8
  %63 = load double, double* %7, align 8
  %64 = call i32 (i8*, ...) @printf(i8* getelementptr inbounds ([5 x i8], [5 x i8]* @.str.2, i64 0, i64 0), double %63)
  br label %67

65:                                               ; preds = %0
  %66 = call i32 (i8*, ...) @printf(i8* getelementptr inbounds ([14 x i8], [14 x i8]* @.str.3, i64 0, i64 0))
  br label %67

67:                                               ; preds = %65, %60
  ret void
}

declare dso_local i32 @__isoc99_scanf(i8*, ...) #1

; Function Attrs: nounwind
declare dso_local double @cos(double) #2

; Function Attrs: nounwind
declare dso_local double @sqrt(double) #2

declare dso_local i32 @printf(i8*, ...) #1


!llvm.module.flags = !{!0}
!llvm.ident = !{!1}

!0 = !{i32 1, !"wchar_size", i32 4}
!1 = !{!"clang version 10.0.0-4ubuntu1 "}
