; ModuleID = 'source-C-CXX/39/1087.c'
source_filename = "source-C-CXX/39/1087.c"
target datalayout = "e-m:e-p270:32:32-p271:32:32-p272:64:64-i64:64-f80:128-n8:16:32:64-S128"
target triple = "x86_64-pc-linux-gnu"

@.str = private unnamed_addr constant [9 x i8] c"%f%f%f%f\00", align 1
@.str.1 = private unnamed_addr constant [3 x i8] c"%f\00", align 1
@.str.2 = private unnamed_addr constant [5 x i8] c"%.4f\00", align 1
@.str.3 = private unnamed_addr constant [14 x i8] c"Invalid input\00", align 1

; Function Attrs: nofree nounwind sspstrong uwtable
define dso_local void @main() local_unnamed_addr #0 {
  %1 = alloca float, align 4
  %2 = alloca float, align 4
  %3 = alloca float, align 4
  %4 = alloca float, align 4
  %5 = alloca float, align 4
  %6 = bitcast float* %1 to i8*
  call void @llvm.lifetime.start.p0i8(i64 4, i8* nonnull %6) #4
  %7 = bitcast float* %2 to i8*
  call void @llvm.lifetime.start.p0i8(i64 4, i8* nonnull %7) #4
  %8 = bitcast float* %3 to i8*
  call void @llvm.lifetime.start.p0i8(i64 4, i8* nonnull %8) #4
  %9 = bitcast float* %4 to i8*
  call void @llvm.lifetime.start.p0i8(i64 4, i8* nonnull %9) #4
  %10 = bitcast float* %5 to i8*
  call void @llvm.lifetime.start.p0i8(i64 4, i8* nonnull %10) #4
  %11 = call i32 (i8*, ...) @__isoc99_scanf(i8* getelementptr inbounds ([9 x i8], [9 x i8]* @.str, i64 0, i64 0), float* nonnull %1, float* nonnull %2, float* nonnull %3, float* nonnull %4)
  %12 = load float, float* %1, align 4, !tbaa !5
  %13 = load float, float* %2, align 4, !tbaa !5
  %14 = fadd float %12, %13
  %15 = load float, float* %3, align 4, !tbaa !5
  %16 = fadd float %14, %15
  %17 = load float, float* %4, align 4, !tbaa !5
  %18 = fadd float %16, %17
  %19 = fmul float %18, 5.000000e-01
  %20 = call i32 (i8*, ...) @__isoc99_scanf(i8* getelementptr inbounds ([3 x i8], [3 x i8]* @.str.1, i64 0, i64 0), float* nonnull %5)
  %21 = load float, float* %5, align 4, !tbaa !5
  %22 = fmul float %21, 5.000000e-01
  %23 = fdiv float %22, 1.800000e+02
  %24 = fpext float %23 to double
  %25 = fmul double %24, 0x400921FB4D12D84A
  %26 = load float, float* %1, align 4, !tbaa !5
  %27 = fsub float %19, %26
  %28 = load float, float* %2, align 4, !tbaa !5
  %29 = fsub float %19, %28
  %30 = fmul float %27, %29
  %31 = load float, float* %3, align 4, !tbaa !5
  %32 = fsub float %19, %31
  %33 = fmul float %30, %32
  %34 = load float, float* %4, align 4, !tbaa !5
  %35 = fsub float %19, %34
  %36 = fmul float %33, %35
  %37 = fpext float %36 to double
  %38 = fmul float %26, %28
  %39 = fmul float %38, %31
  %40 = fmul float %39, %34
  %41 = fpext float %40 to double
  %42 = call double @cos(double %25) #4
  %43 = fmul double %42, %41
  %44 = call double @cos(double %25) #4
  %45 = fmul double %44, %43
  %46 = fsub double %37, %45
  %47 = fcmp ult double %46, 0.000000e+00
  br i1 %47, label %51, label %48

48:                                               ; preds = %0
  %49 = call double @sqrt(double %46) #4
  %50 = call i32 (i8*, ...) @printf(i8* nonnull dereferenceable(1) getelementptr inbounds ([5 x i8], [5 x i8]* @.str.2, i64 0, i64 0), double %49)
  br label %53

51:                                               ; preds = %0
  %52 = call i32 (i8*, ...) @printf(i8* nonnull dereferenceable(1) getelementptr inbounds ([14 x i8], [14 x i8]* @.str.3, i64 0, i64 0))
  br label %53

53:                                               ; preds = %51, %48
  call void @llvm.lifetime.end.p0i8(i64 4, i8* nonnull %10) #4
  call void @llvm.lifetime.end.p0i8(i64 4, i8* nonnull %9) #4
  call void @llvm.lifetime.end.p0i8(i64 4, i8* nonnull %8) #4
  call void @llvm.lifetime.end.p0i8(i64 4, i8* nonnull %7) #4
  call void @llvm.lifetime.end.p0i8(i64 4, i8* nonnull %6) #4
  ret void
}

; Function Attrs: argmemonly mustprogress nofree nosync nounwind willreturn
declare void @llvm.lifetime.start.p0i8(i64 immarg, i8* nocapture) #1

; Function Attrs: nofree nounwind
declare noundef i32 @__isoc99_scanf(i8* nocapture noundef readonly, ...) local_unnamed_addr #2

; Function Attrs: mustprogress nofree nounwind willreturn
declare double @cos(double) local_unnamed_addr #3

; Function Attrs: mustprogress nofree nounwind willreturn
declare double @sqrt(double) local_unnamed_addr #3

; Function Attrs: nofree nounwind
declare noundef i32 @printf(i8* nocapture noundef readonly, ...) local_unnamed_addr #2

; Function Attrs: argmemonly mustprogress nofree nosync nounwind willreturn
declare void @llvm.lifetime.end.p0i8(i64 immarg, i8* nocapture) #1


!llvm.module.flags = !{!0, !1, !2, !3}
!llvm.ident = !{!4}

!0 = !{i32 1, !"wchar_size", i32 4}
!1 = !{i32 7, !"PIC Level", i32 2}
!2 = !{i32 7, !"PIE Level", i32 2}
!3 = !{i32 7, !"uwtable", i32 1}
!4 = !{!"clang version 13.0.0"}
!5 = !{!6, !6, i64 0}
!6 = !{!"float", !7, i64 0}
!7 = !{!"omnipotent char", !8, i64 0}
!8 = !{!"Simple C/C++ TBAA"}
